target datalayout = "e-m:e-p270:32:32-p271:32:32-p272:64:64-i64:64-i128:128-f80:128-n8:16:32:64-S128"
target triple = "x86_64-pc-linux-gnu"

%struct.block_iq4_nlx4 = type { [4 x i16], [64 x i8] }
%struct.block_q8_0 = type { i16, [32 x i8] }

@ggml_table_f32_f16 = external global [65536 x float], align 16
@_ZL13kvalues_iq4nl = internal constant [16 x i8] c"\81\98\AD\BF\CF\DD\EA\F6\01\0D\19&5EYq", align 16

; Function Attrs: inlinehint mustprogress nounwind uwtable
define internal noundef float @_ZL24ggml_lookup_fp16_to_fp32t(i16 noundef zeroext %0) #6 {
  %2 = alloca i16, align 2
  %3 = alloca i16, align 2
  store i16 %0, ptr %2, align 2, !tbaa !23
  call void @llvm.lifetime.start.p0(i64 2, ptr %3) #23
  call void @llvm.memcpy.p0.p0.i64(ptr align 2 %3, ptr align 2 %2, i64 2, i1 false)
  %4 = load i16, ptr %3, align 2, !tbaa !23
  %5 = zext i16 %4 to i64
  %6 = getelementptr inbounds nuw [65536 x float], ptr @ggml_table_f32_f16, i64 0, i64 %5
  %7 = load float, ptr %6, align 4, !tbaa !55
  call void @llvm.lifetime.end.p0(i64 2, ptr %3) #23
  ret float %7
}

; Function Attrs: mustprogress nounwind uwtable
define internal void @_ZL25ggml_gemv_iq4_nl_4x4_q8_0iPfmPKvS1_ii(i32 noundef %0, ptr noalias noundef %1, i64 noundef %2, ptr noalias noundef %3, ptr noalias noundef %4, i32 noundef %5, i32 noundef %6) #5 {
  %8 = alloca i32, align 4
  %9 = alloca ptr, align 8
  %10 = alloca i64, align 8
  %11 = alloca ptr, align 8
  %12 = alloca ptr, align 8
  %13 = alloca i32, align 4
  %14 = alloca i32, align 4
  %15 = alloca i32, align 4
  %16 = alloca i32, align 4
  %17 = alloca i32, align 4
  %18 = alloca i32, align 4
  %19 = alloca [4 x float], align 16
  %20 = alloca i32, align 4
  %21 = alloca ptr, align 8
  %22 = alloca i32, align 4
  %23 = alloca i32, align 4
  %24 = alloca ptr, align 8
  %25 = alloca i32, align 4
  %26 = alloca i32, align 4
  %27 = alloca i32, align 4
  %28 = alloca i32, align 4
  %29 = alloca i32, align 4
  %30 = alloca i32, align 4
  %31 = alloca i32, align 4
  %32 = alloca i32, align 4
  store i32 %0, ptr %8, align 4, !tbaa !12
  store ptr %1, ptr %9, align 8, !tbaa !53
  store i64 %2, ptr %10, align 8, !tbaa !10
  store ptr %3, ptr %11, align 8, !tbaa !9
  store ptr %4, ptr %12, align 8, !tbaa !9
  store i32 %5, ptr %13, align 4, !tbaa !12
  store i32 %6, ptr %14, align 4, !tbaa !12
  call void @llvm.lifetime.start.p0(i64 4, ptr %15) #23
  store i32 32, ptr %15, align 4, !tbaa !12
  call void @llvm.lifetime.start.p0(i64 4, ptr %16) #23
  %33 = load i32, ptr %8, align 4, !tbaa !12
  %34 = sdiv i32 %33, 32
  store i32 %34, ptr %16, align 4, !tbaa !12
  call void @llvm.lifetime.start.p0(i64 4, ptr %17) #23
  store i32 4, ptr %17, align 4, !tbaa !12
  call void @llvm.lifetime.start.p0(i64 4, ptr %18) #23
  store i32 4, ptr %18, align 4, !tbaa !12
  call void @llvm.lifetime.start.p0(i64 16, ptr %19) #23
  call void @llvm.lifetime.start.p0(i64 4, ptr %20) #23
  call void @llvm.lifetime.start.p0(i64 8, ptr %21) #23
  %35 = load ptr, ptr %12, align 8, !tbaa !9
  store ptr %35, ptr %21, align 8, !tbaa !9
  call void @llvm.lifetime.start.p0(i64 4, ptr %22) #23
  store i32 0, ptr %22, align 4, !tbaa !12
  br label %36

36:                                               ; preds = %221, %7
  %37 = load i32, ptr %22, align 4, !tbaa !12
  %38 = load i32, ptr %14, align 4, !tbaa !12
  %39 = sdiv i32 %38, 4
  %40 = icmp slt i32 %37, %39
  br i1 %40, label %42, label %41

41:                                               ; preds = %36
  store i32 2, ptr %23, align 4
  call void @llvm.lifetime.end.p0(i64 4, ptr %22) #23
  br label %224

42:                                               ; preds = %36
  call void @llvm.lifetime.start.p0(i64 8, ptr %24) #23
  %43 = load ptr, ptr %11, align 8, !tbaa !9
  %44 = load i32, ptr %22, align 4, !tbaa !12
  %45 = load i32, ptr %16, align 4, !tbaa !12
  %46 = mul nsw i32 %44, %45
  %47 = sext i32 %46 to i64
  %48 = getelementptr inbounds %struct.block_iq4_nlx4, ptr %43, i64 %47
  store ptr %48, ptr %24, align 8, !tbaa !44
  call void @llvm.lifetime.start.p0(i64 4, ptr %25) #23
  store i32 0, ptr %25, align 4, !tbaa !12
  br label %49

49:                                               ; preds = %57, %42
  %50 = load i32, ptr %25, align 4, !tbaa !12
  %51 = icmp slt i32 %50, 4
  br i1 %51, label %53, label %52

52:                                               ; preds = %49
  store i32 5, ptr %23, align 4
  call void @llvm.lifetime.end.p0(i64 4, ptr %25) #23
  br label %60

53:                                               ; preds = %49
  %54 = load i32, ptr %25, align 4, !tbaa !12
  %55 = sext i32 %54 to i64
  %56 = getelementptr inbounds [4 x float], ptr %19, i64 0, i64 %55
  store float 0.000000e+00, ptr %56, align 4, !tbaa !55
  br label %57

57:                                               ; preds = %53
  %58 = load i32, ptr %25, align 4, !tbaa !12
  %59 = add nsw i32 %58, 1
  store i32 %59, ptr %25, align 4, !tbaa !12
  br label %49, !llvm.loop !76

60:                                               ; preds = %52
  call void @llvm.lifetime.start.p0(i64 4, ptr %26) #23
  store i32 0, ptr %26, align 4, !tbaa !12
  br label %61

61:                                               ; preds = %197, %60
  %62 = load i32, ptr %26, align 4, !tbaa !12
  %63 = load i32, ptr %16, align 4, !tbaa !12
  %64 = icmp slt i32 %62, %63
  br i1 %64, label %66, label %65

65:                                               ; preds = %61
  store i32 8, ptr %23, align 4
  call void @llvm.lifetime.end.p0(i64 4, ptr %26) #23
  br label %200

66:                                               ; preds = %61
  call void @llvm.lifetime.start.p0(i64 4, ptr %27) #23
  store i32 0, ptr %27, align 4, !tbaa !12
  br label %67

67:                                               ; preds = %193, %66
  %68 = load i32, ptr %27, align 4, !tbaa !12
  %69 = icmp slt i32 %68, 4
  br i1 %69, label %71, label %70

70:                                               ; preds = %67
  store i32 11, ptr %23, align 4
  call void @llvm.lifetime.end.p0(i64 4, ptr %27) #23
  br label %196

71:                                               ; preds = %67
  call void @llvm.lifetime.start.p0(i64 4, ptr %28) #23
  store i32 0, ptr %28, align 4, !tbaa !12
  br label %72

72:                                               ; preds = %189, %71
  %73 = load i32, ptr %28, align 4, !tbaa !12
  %74 = icmp slt i32 %73, 4
  br i1 %74, label %76, label %75

75:                                               ; preds = %72
  store i32 14, ptr %23, align 4
  call void @llvm.lifetime.end.p0(i64 4, ptr %28) #23
  br label %192

76:                                               ; preds = %72
  store i32 0, ptr %20, align 4, !tbaa !12
  call void @llvm.lifetime.start.p0(i64 4, ptr %29) #23
  store i32 0, ptr %29, align 4, !tbaa !12
  br label %77

77:                                               ; preds = %160, %76
  %78 = load i32, ptr %29, align 4, !tbaa !12
  %79 = icmp slt i32 %78, 4
  br i1 %79, label %81, label %80

80:                                               ; preds = %77
  store i32 17, ptr %23, align 4
  call void @llvm.lifetime.end.p0(i64 4, ptr %29) #23
  br label %163

81:                                               ; preds = %77
  call void @llvm.lifetime.start.p0(i64 4, ptr %30) #23
  %82 = load ptr, ptr %24, align 8, !tbaa !44
  %83 = load i32, ptr %26, align 4, !tbaa !12
  %84 = sext i32 %83 to i64
  %85 = getelementptr inbounds %struct.block_iq4_nlx4, ptr %82, i64 %84
  %86 = getelementptr inbounds nuw %struct.block_iq4_nlx4, ptr %85, i32 0, i32 1
  %87 = load i32, ptr %27, align 4, !tbaa !12
  %88 = mul nsw i32 %87, 4
  %89 = mul nsw i32 %88, 4
  %90 = load i32, ptr %28, align 4, !tbaa !12
  %91 = mul nsw i32 %90, 4
  %92 = add nsw i32 %89, %91
  %93 = load i32, ptr %29, align 4, !tbaa !12
  %94 = add nsw i32 %92, %93
  %95 = sext i32 %94 to i64
  %96 = getelementptr inbounds [64 x i8], ptr %86, i64 0, i64 %95
  %97 = load i8, ptr %96, align 1, !tbaa !25
  %98 = zext i8 %97 to i32
  %99 = and i32 %98, 15
  %100 = sext i32 %99 to i64
  %101 = getelementptr inbounds [16 x i8], ptr @_ZL13kvalues_iq4nl, i64 0, i64 %100
  %102 = load i8, ptr %101, align 1, !tbaa !25
  %103 = sext i8 %102 to i32
  store i32 %103, ptr %30, align 4, !tbaa !12
  call void @llvm.lifetime.start.p0(i64 4, ptr %31) #23
  %104 = load ptr, ptr %24, align 8, !tbaa !44
  %105 = load i32, ptr %26, align 4, !tbaa !12
  %106 = sext i32 %105 to i64
  %107 = getelementptr inbounds %struct.block_iq4_nlx4, ptr %104, i64 %106
  %108 = getelementptr inbounds nuw %struct.block_iq4_nlx4, ptr %107, i32 0, i32 1
  %109 = load i32, ptr %27, align 4, !tbaa !12
  %110 = mul nsw i32 %109, 4
  %111 = mul nsw i32 %110, 4
  %112 = load i32, ptr %28, align 4, !tbaa !12
  %113 = mul nsw i32 %112, 4
  %114 = add nsw i32 %111, %113
  %115 = load i32, ptr %29, align 4, !tbaa !12
  %116 = add nsw i32 %114, %115
  %117 = sext i32 %116 to i64
  %118 = getelementptr inbounds [64 x i8], ptr %108, i64 0, i64 %117
  %119 = load i8, ptr %118, align 1, !tbaa !25
  %120 = zext i8 %119 to i32
  %121 = ashr i32 %120, 4
  %122 = sext i32 %121 to i64
  %123 = getelementptr inbounds [16 x i8], ptr @_ZL13kvalues_iq4nl, i64 0, i64 %122
  %124 = load i8, ptr %123, align 1, !tbaa !25
  %125 = sext i8 %124 to i32
  store i32 %125, ptr %31, align 4, !tbaa !12
  %126 = load i32, ptr %30, align 4, !tbaa !12
  %127 = load ptr, ptr %21, align 8, !tbaa !9
  %128 = load i32, ptr %26, align 4, !tbaa !12
  %129 = sext i32 %128 to i64
  %130 = getelementptr inbounds %struct.block_q8_0, ptr %127, i64 %129
  %131 = getelementptr inbounds nuw %struct.block_q8_0, ptr %130, i32 0, i32 1
  %132 = load i32, ptr %27, align 4, !tbaa !12
  %133 = mul nsw i32 %132, 4
  %134 = load i32, ptr %29, align 4, !tbaa !12
  %135 = add nsw i32 %133, %134
  %136 = sext i32 %135 to i64
  %137 = getelementptr inbounds [32 x i8], ptr %131, i64 0, i64 %136
  %138 = load i8, ptr %137, align 1, !tbaa !25
  %139 = sext i8 %138 to i32
  %140 = mul nsw i32 %126, %139
  %141 = load i32, ptr %31, align 4, !tbaa !12
  %142 = load ptr, ptr %21, align 8, !tbaa !9
  %143 = load i32, ptr %26, align 4, !tbaa !12
  %144 = sext i32 %143 to i64
  %145 = getelementptr inbounds %struct.block_q8_0, ptr %142, i64 %144
  %146 = getelementptr inbounds nuw %struct.block_q8_0, ptr %145, i32 0, i32 1
  %147 = load i32, ptr %27, align 4, !tbaa !12
  %148 = mul nsw i32 %147, 4
  %149 = load i32, ptr %29, align 4, !tbaa !12
  %150 = add nsw i32 %148, %149
  %151 = add nsw i32 %150, 16
  %152 = sext i32 %151 to i64
  %153 = getelementptr inbounds [32 x i8], ptr %146, i64 0, i64 %152
  %154 = load i8, ptr %153, align 1, !tbaa !25
  %155 = sext i8 %154 to i32
  %156 = mul nsw i32 %141, %155
  %157 = add nsw i32 %140, %156
  %158 = load i32, ptr %20, align 4, !tbaa !12
  %159 = add nsw i32 %158, %157
  store i32 %159, ptr %20, align 4, !tbaa !12
  call void @llvm.lifetime.end.p0(i64 4, ptr %31) #23
  call void @llvm.lifetime.end.p0(i64 4, ptr %30) #23
  br label %160

160:                                              ; preds = %81
  %161 = load i32, ptr %29, align 4, !tbaa !12
  %162 = add nsw i32 %161, 1
  store i32 %162, ptr %29, align 4, !tbaa !12
  br label %77, !llvm.loop !77

163:                                              ; preds = %80
  %164 = load i32, ptr %20, align 4, !tbaa !12
  %165 = sitofp i32 %164 to float
  %166 = load ptr, ptr %24, align 8, !tbaa !44
  %167 = load i32, ptr %26, align 4, !tbaa !12
  %168 = sext i32 %167 to i64
  %169 = getelementptr inbounds %struct.block_iq4_nlx4, ptr %166, i64 %168
  %170 = getelementptr inbounds nuw %struct.block_iq4_nlx4, ptr %169, i32 0, i32 0
  %171 = load i32, ptr %28, align 4, !tbaa !12
  %172 = sext i32 %171 to i64
  %173 = getelementptr inbounds [4 x i16], ptr %170, i64 0, i64 %172
  %174 = load i16, ptr %173, align 2, !tbaa !23
  %175 = call noundef float @_ZL24ggml_lookup_fp16_to_fp32t(i16 noundef zeroext %174)
  %176 = fmul float %165, %175
  %177 = load ptr, ptr %21, align 8, !tbaa !9
  %178 = load i32, ptr %26, align 4, !tbaa !12
  %179 = sext i32 %178 to i64
  %180 = getelementptr inbounds %struct.block_q8_0, ptr %177, i64 %179
  %181 = getelementptr inbounds nuw %struct.block_q8_0, ptr %180, i32 0, i32 0
  %182 = load i16, ptr %181, align 2, !tbaa !59
  %183 = call noundef float @_ZL24ggml_lookup_fp16_to_fp32t(i16 noundef zeroext %182)
  %184 = load i32, ptr %28, align 4, !tbaa !12
  %185 = sext i32 %184 to i64
  %186 = getelementptr inbounds [4 x float], ptr %19, i64 0, i64 %185
  %187 = load float, ptr %186, align 4, !tbaa !55
  %188 = call float @llvm.fmuladd.f32(float %176, float %183, float %187)
  store float %188, ptr %186, align 4, !tbaa !55
  br label %189

189:                                              ; preds = %163
  %190 = load i32, ptr %28, align 4, !tbaa !12
  %191 = add nsw i32 %190, 1
  store i32 %191, ptr %28, align 4, !tbaa !12
  br label %72, !llvm.loop !78

192:                                              ; preds = %75
  br label %193

193:                                              ; preds = %192
  %194 = load i32, ptr %27, align 4, !tbaa !12
  %195 = add nsw i32 %194, 1
  store i32 %195, ptr %27, align 4, !tbaa !12
  br label %67, !llvm.loop !79

196:                                              ; preds = %70
  br label %197

197:                                              ; preds = %196
  %198 = load i32, ptr %26, align 4, !tbaa !12
  %199 = add nsw i32 %198, 1
  store i32 %199, ptr %26, align 4, !tbaa !12
  br label %61, !llvm.loop !80

200:                                              ; preds = %65
  call void @llvm.lifetime.start.p0(i64 4, ptr %32) #23
  store i32 0, ptr %32, align 4, !tbaa !12
  br label %201

201:                                              ; preds = %217, %200
  %202 = load i32, ptr %32, align 4, !tbaa !12
  %203 = icmp slt i32 %202, 4
  br i1 %203, label %205, label %204

204:                                              ; preds = %201
  store i32 20, ptr %23, align 4
  call void @llvm.lifetime.end.p0(i64 4, ptr %32) #23
  br label %220

205:                                              ; preds = %201
  %206 = load i32, ptr %32, align 4, !tbaa !12
  %207 = sext i32 %206 to i64
  %208 = getelementptr inbounds [4 x float], ptr %19, i64 0, i64 %207
  %209 = load float, ptr %208, align 4, !tbaa !55
  %210 = load ptr, ptr %9, align 8, !tbaa !53
  %211 = load i32, ptr %22, align 4, !tbaa !12
  %212 = mul nsw i32 %211, 4
  %213 = load i32, ptr %32, align 4, !tbaa !12
  %214 = add nsw i32 %212, %213
  %215 = sext i32 %214 to i64
  %216 = getelementptr inbounds float, ptr %210, i64 %215
  store float %209, ptr %216, align 4, !tbaa !55
  br label %217

217:                                              ; preds = %205
  %218 = load i32, ptr %32, align 4, !tbaa !12
  %219 = add nsw i32 %218, 1
  store i32 %219, ptr %32, align 4, !tbaa !12
  br label %201, !llvm.loop !81

220:                                              ; preds = %204
  call void @llvm.lifetime.end.p0(i64 8, ptr %24) #23
  br label %221

221:                                              ; preds = %220
  %222 = load i32, ptr %22, align 4, !tbaa !12
  %223 = add nsw i32 %222, 1
  store i32 %223, ptr %22, align 4, !tbaa !12
  br label %36, !llvm.loop !82

224:                                              ; preds = %41
  call void @llvm.lifetime.end.p0(i64 8, ptr %21) #23
  call void @llvm.lifetime.end.p0(i64 4, ptr %20) #23
  call void @llvm.lifetime.end.p0(i64 16, ptr %19) #23
  call void @llvm.lifetime.end.p0(i64 4, ptr %18) #23
  call void @llvm.lifetime.end.p0(i64 4, ptr %17) #23
  call void @llvm.lifetime.end.p0(i64 4, ptr %16) #23
  call void @llvm.lifetime.end.p0(i64 4, ptr %15) #23
  ret void
}

; Function Attrs: mustprogress uwtable
define void @_ZN4ggml3cpu7aarch644gemvI12block_iq4_nlLl4ELl4EEEviPfmPKvS6_ii(i32 noundef %0, ptr noundef %1, i64 noundef %2, ptr noundef %3, ptr noundef %4, i32 noundef %5, i32 noundef %6) #0 {
  %8 = alloca i32, align 4
  %9 = alloca ptr, align 8
  %10 = alloca i64, align 8
  %11 = alloca ptr, align 8
  %12 = alloca ptr, align 8
  %13 = alloca i32, align 4
  %14 = alloca i32, align 4
  store i32 %0, ptr %8, align 4, !tbaa !12
  store ptr %1, ptr %9, align 8, !tbaa !53
  store i64 %2, ptr %10, align 8, !tbaa !10
  store ptr %3, ptr %11, align 8, !tbaa !9
  store ptr %4, ptr %12, align 8, !tbaa !9
  store i32 %5, ptr %13, align 4, !tbaa !12
  store i32 %6, ptr %14, align 4, !tbaa !12
  %15 = load i32, ptr %8, align 4, !tbaa !12
  %16 = load ptr, ptr %9, align 8, !tbaa !53
  %17 = load i64, ptr %10, align 8, !tbaa !10
  %18 = load ptr, ptr %11, align 8, !tbaa !9
  %19 = load ptr, ptr %12, align 8, !tbaa !9
  %20 = load i32, ptr %13, align 4, !tbaa !12
  %21 = load i32, ptr %14, align 4, !tbaa !12
  call void @_ZL25ggml_gemv_iq4_nl_4x4_q8_0iPfmPKvS1_ii(i32 noundef %15, ptr noundef %16, i64 noundef %17, ptr noundef %18, ptr noundef %19, i32 noundef %20, i32 noundef %21)
  ret void
}