; Function Attrs: mustprogress nofree norecurse nosync nounwind memory(read, argmem: readwrite, inaccessiblemem: readwrite) uwtable
define void @_ZN4ggml3cpu7aarch644gemvI12block_iq4_nlLl4ELl4EEEviPfmPKvS6_ii(i32 noundef %0, ptr noundef writeonly captures(none) %1, i64 %2, ptr noundef readonly captures(none) %3, ptr noundef readonly captures(none) %4, i32 %5, i32 noundef %6) local_unnamed_addr #5 {
  %8 = alloca [4 x float], align 16
  tail call void @llvm.experimental.noalias.scope.decl(metadata !111)
  tail call void @llvm.experimental.noalias.scope.decl(metadata !114)
  tail call void @llvm.experimental.noalias.scope.decl(metadata !116)
  %9 = sdiv i32 %0, 32
  call void @llvm.lifetime.start.p0(i64 16, ptr nonnull %8) #23, !noalias !118
  %10 = sdiv i32 %6, 4
  %11 = icmp sgt i32 %6, 3
  br i1 %11, label %.lr.ph.i, label %_ZL25ggml_gemv_iq4_nl_4x4_q8_0iPfmPKvS1_ii.exit

.lr.ph.i:                                         ; preds = %7
  %12 = icmp sgt i32 %0, 31
  br i1 %12, label %.lr.ph.split.us.preheader.i, label %.lr.ph.split.preheader.i

.lr.ph.split.preheader.i:                         ; preds = %.lr.ph.i
  %wide.trip.count.i = zext nneg i32 %10 to i64
  %13 = shl nuw nsw i64 %wide.trip.count.i, 4
  tail call void @llvm.memset.p0.i64(ptr align 4 %1, i8 0, i64 %13, i1 false), !alias.scope !111, !noalias !119
  br label %_ZL25ggml_gemv_iq4_nl_4x4_q8_0iPfmPKvS1_ii.exit

.lr.ph.split.us.preheader.i:                      ; preds = %.lr.ph.i
  %14 = zext nneg i32 %9 to i64
  %wide.trip.count99.i = zext nneg i32 %10 to i64
  br label %.lr.ph.split.us.i

.lr.ph.split.us.i:                                ; preds = %..preheader62_crit_edge.us.i, %.lr.ph.split.us.preheader.i
  %indvar92.i = phi i64 [ 0, %.lr.ph.split.us.preheader.i ], [ %indvar.next93.i, %..preheader62_crit_edge.us.i ]
  %15 = shl nuw nsw i64 %indvar92.i, 4
  %16 = mul nuw nsw i64 %indvar92.i, %14
  call void @llvm.memset.p0.i64(ptr noundef nonnull align 16 dereferenceable(16) %8, i8 0, i64 16, i1 false), !tbaa !70, !noalias !118
  %17 = getelementptr inbounds nuw %struct.block_iq4_nlx4, ptr %3, i64 %16
  br label %.preheader61.us.i

18:                                               ; preds = %19
  %indvars.iv.next88.i = add nuw nsw i64 %indvars.iv87.i, 1
  %exitcond91.not.i = icmp eq i64 %indvars.iv.next88.i, %14
  br i1 %exitcond91.not.i, label %..preheader62_crit_edge.us.i, label %.preheader61.us.i, !llvm.loop !120

19:                                               ; preds = %20
  %indvars.iv.next84.i = add nuw nsw i64 %indvars.iv83.i, 1
  %exitcond86.not.i = icmp eq i64 %indvars.iv.next84.i, 4
  br i1 %exitcond86.not.i, label %18, label %.preheader60.us.i, !llvm.loop !121

20:                                               ; preds = %31
  %21 = sitofp i32 %57 to float
  %22 = getelementptr inbounds nuw [4 x i16], ptr %62, i64 0, i64 %indvars.iv79.i
  %23 = load i16, ptr %22, align 2, !tbaa !23, !alias.scope !114, !noalias !122
  %24 = zext i16 %23 to i64
  %25 = getelementptr inbounds nuw [65536 x float], ptr @ggml_table_f32_f16, i64 0, i64 %24
  %26 = load float, ptr %25, align 4, !tbaa !70, !noalias !118
  %27 = fmul float %26, %21
  %28 = getelementptr inbounds nuw [4 x float], ptr %8, i64 0, i64 %indvars.iv79.i
  %29 = load float, ptr %28, align 4, !tbaa !70, !noalias !118
  %30 = tail call float @llvm.fmuladd.f32(float %27, float %67, float %29)
  store float %30, ptr %28, align 4, !tbaa !70, !noalias !118
  %indvars.iv.next80.i = add nuw nsw i64 %indvars.iv79.i, 1
  %exitcond82.not.i = icmp eq i64 %indvars.iv.next80.i, 4
  br i1 %exitcond82.not.i, label %19, label %.preheader.us.i, !llvm.loop !123

31:                                               ; preds = %.preheader.us.i, %31
  %indvars.iv.i = phi i64 [ 0, %.preheader.us.i ], [ %indvars.iv.next.i, %31 ]
  %.05366.us.i = phi i32 [ 0, %.preheader.us.i ], [ %57, %31 ]
  %32 = add nuw nsw i64 %59, %indvars.iv.i
  %33 = getelementptr inbounds nuw %struct.block_iq4_nlx4, ptr %17, i64 %indvars.iv87.i, i32 1, i64 %32
  %34 = load i8, ptr %33, align 1, !tbaa !29, !alias.scope !114, !noalias !122
  %35 = zext i8 %34 to i32
  %36 = and i32 %35, 15
  %37 = zext nneg i32 %36 to i64
  %38 = getelementptr inbounds nuw [16 x i8], ptr @_ZL13kvalues_iq4nl, i64 0, i64 %37
  %39 = load i8, ptr %38, align 1, !tbaa !29, !noalias !118
  %40 = sext i8 %39 to i32
  %41 = lshr i32 %35, 4
  %42 = zext nneg i32 %41 to i64
  %43 = getelementptr inbounds nuw [16 x i8], ptr @_ZL13kvalues_iq4nl, i64 0, i64 %42
  %44 = load i8, ptr %43, align 1, !tbaa !29, !noalias !118
  %45 = sext i8 %44 to i32
  %46 = add nuw nsw i64 %indvars.iv.i, %60
  %47 = getelementptr inbounds nuw %struct.block_q8_0, ptr %4, i64 %indvars.iv87.i, i32 1, i64 %46
  %48 = load i8, ptr %47, align 1, !tbaa !29, !alias.scope !116, !noalias !124
  %49 = sext i8 %48 to i32
  %50 = mul nsw i32 %49, %40
  %51 = or disjoint i64 %46, 16
  %52 = getelementptr inbounds nuw %struct.block_q8_0, ptr %4, i64 %indvars.iv87.i, i32 1, i64 %51
  %53 = load i8, ptr %52, align 1, !tbaa !29, !alias.scope !116, !noalias !124
  %54 = sext i8 %53 to i32
  %55 = mul nsw i32 %54, %45
  %56 = add i32 %50, %.05366.us.i
  %57 = add i32 %56, %55
  %indvars.iv.next.i = add nuw nsw i64 %indvars.iv.i, 1
  %exitcond78.not.i = icmp eq i64 %indvars.iv.next.i, 4
  br i1 %exitcond78.not.i, label %20, label %31, !llvm.loop !125

.preheader.us.i:                                  ; preds = %.preheader60.us.i, %20
  %indvars.iv79.i = phi i64 [ 0, %.preheader60.us.i ], [ %indvars.iv.next80.i, %20 ]
  %58 = shl nuw nsw i64 %indvars.iv79.i, 2
  %59 = add nuw nsw i64 %58, %61
  br label %31

.preheader60.us.i:                                ; preds = %.preheader61.us.i, %19
  %indvars.iv83.i = phi i64 [ 0, %.preheader61.us.i ], [ %indvars.iv.next84.i, %19 ]
  %60 = shl nuw nsw i64 %indvars.iv83.i, 2
  %61 = shl nuw nsw i64 %indvars.iv83.i, 4
  br label %.preheader.us.i

.preheader61.us.i:                                ; preds = %18, %.lr.ph.split.us.i
  %indvars.iv87.i = phi i64 [ 0, %.lr.ph.split.us.i ], [ %indvars.iv.next88.i, %18 ]
  %62 = getelementptr inbounds nuw %struct.block_iq4_nlx4, ptr %17, i64 %indvars.iv87.i
  %63 = getelementptr inbounds nuw %struct.block_q8_0, ptr %4, i64 %indvars.iv87.i
  %64 = load i16, ptr %63, align 2, !tbaa !78, !alias.scope !116, !noalias !124
  %65 = zext i16 %64 to i64
  %66 = getelementptr inbounds nuw [65536 x float], ptr @ggml_table_f32_f16, i64 0, i64 %65
  %67 = load float, ptr %66, align 4, !tbaa !70, !noalias !118
  br label %.preheader60.us.i

..preheader62_crit_edge.us.i:                     ; preds = %18
  %scevgep94.i = getelementptr i8, ptr %1, i64 %15
  call void @llvm.memcpy.p0.p0.i64(ptr noundef nonnull align 4 dereferenceable(16) %scevgep94.i, ptr noundef nonnull align 16 dereferenceable(16) %8, i64 16, i1 false), !tbaa !70, !noalias !119
  %indvar.next93.i = add nuw nsw i64 %indvar92.i, 1
  %exitcond100.not.i = icmp eq i64 %indvar.next93.i, %wide.trip.count99.i
  br i1 %exitcond100.not.i, label %_ZL25ggml_gemv_iq4_nl_4x4_q8_0iPfmPKvS1_ii.exit, label %.lr.ph.split.us.i, !llvm.loop !126

_ZL25ggml_gemv_iq4_nl_4x4_q8_0iPfmPKvS1_ii.exit:  ; preds = %..preheader62_crit_edge.us.i, %.lr.ph.split.preheader.i, %7
  call void @llvm.lifetime.end.p0(i64 16, ptr nonnull %8) #23, !noalias !118
  ret void
}